target datalayout = "e-m:e-p270:32:32-p271:32:32-p272:64:64-i64:64-i128:128-f80:128-n8:16:32:64-S128"
target triple = "x86_64-pc-linux-gnu"

%struct.Rwr_Node_t_ = type <{ i32, i32, i16, i16, i16, i32, [6 x i8], ptr, ptr, ptr }>
%struct.Rwr_Man_t_ = type { i32, ptr, ptr, ptr, ptr, ptr, ptr, ptr, ptr, ptr, ptr, ptr, i32, i32, i32, i32, i32, ptr, ptr, ptr, ptr, ptr, i32, i32, i32, i32, i32, [222 x i32], i32, i32, i32, i64, i64, i64, i64, i64, i64, i64 }

@.str.7 = private unnamed_addr constant [7 x i8] c"%5d : \00", align 1
@.str.8 = private unnamed_addr constant [5 x i8] c" tt=\00", align 1
@.str.9 = private unnamed_addr constant [8 x i8] c" lev=%d\00", align 1
@.str.10 = private unnamed_addr constant [8 x i8] c" vol=%d\00", align 1
@.str.11 = private unnamed_addr constant [3 x i8] c"  \00", align 1
@.str.12 = private unnamed_addr constant [2 x i8] c"\0A\00", align 1
@.str.13 = private unnamed_addr constant [14 x i8] c"graph_lib.txt\00", align 1
@.str.14 = private unnamed_addr constant [2 x i8] c"w\00", align 1
@.str.15 = private unnamed_addr constant [24 x i8] c"\0AClass %3d. Func %6d.  \00", align 1
@.str.16 = private unnamed_addr constant [37 x i8] c"Roots = %3d. Vol = %3d. Sum = %3d.  \00", align 1

; Function Attrs: nounwind uwtable
define void @Rwr_NodePrint(ptr noundef %0, ptr noundef %1, ptr noundef %2) #0 {
  %4 = alloca ptr, align 8
  %5 = alloca ptr, align 8
  %6 = alloca ptr, align 8
  %7 = alloca i32, align 4
  store ptr %0, ptr %4, align 8
  store ptr %1, ptr %5, align 8
  store ptr %2, ptr %6, align 8
  %8 = load ptr, ptr %4, align 8
  %9 = load ptr, ptr %6, align 8
  %10 = getelementptr inbounds %struct.Rwr_Node_t_, ptr %9, i32 0, i32 0
  %11 = load i32, ptr %10, align 8
  %12 = call i32 (ptr, ptr, ...) @fprintf(ptr noundef %8, ptr noundef @.str.7, i32 noundef %11) #3
  %13 = load ptr, ptr %6, align 8
  %14 = getelementptr inbounds %struct.Rwr_Node_t_, ptr %13, i32 0, i32 5
  %15 = load i32, ptr %14, align 2
  %16 = and i32 %15, 65535
  store i32 %16, ptr %7, align 4
  %17 = load ptr, ptr %4, align 8
  call void @Extra_PrintHex(ptr noundef %17, ptr noundef %7, i32 noundef 4)
  %18 = load ptr, ptr %4, align 8
  %19 = call i32 (ptr, ptr, ...) @fprintf(ptr noundef %18, ptr noundef @.str.8) #3
  %20 = load ptr, ptr %4, align 8
  call void @Extra_PrintBinary(ptr noundef %20, ptr noundef %7, i32 noundef 16)
  %21 = load ptr, ptr %4, align 8
  %22 = load ptr, ptr %6, align 8
  %23 = getelementptr inbounds %struct.Rwr_Node_t_, ptr %22, i32 0, i32 5
  %24 = load i32, ptr %23, align 2
  %25 = lshr i32 %24, 24
  %26 = and i32 %25, 63
  %27 = call i32 (ptr, ptr, ...) @fprintf(ptr noundef %21, ptr noundef @.str.9, i32 noundef %26) #3
  %28 = load ptr, ptr %4, align 8
  %29 = load ptr, ptr %6, align 8
  %30 = getelementptr inbounds %struct.Rwr_Node_t_, ptr %29, i32 0, i32 5
  %31 = load i32, ptr %30, align 2
  %32 = lshr i32 %31, 16
  %33 = and i32 %32, 255
  %34 = call i32 (ptr, ptr, ...) @fprintf(ptr noundef %28, ptr noundef @.str.10, i32 noundef %33) #3
  %35 = load ptr, ptr %4, align 8
  %36 = call i32 (ptr, ptr, ...) @fprintf(ptr noundef %35, ptr noundef @.str.11) #3
  %37 = load ptr, ptr %4, align 8
  %38 = load ptr, ptr %6, align 8
  call void @Rwr_NodePrint_rec(ptr noundef %37, ptr noundef %38)
  %39 = load ptr, ptr %4, align 8
  %40 = call i32 (ptr, ptr, ...) @fprintf(ptr noundef %39, ptr noundef @.str.12) #3
  ret void
}

; Function Attrs: nounwind uwtable
define i32 @Rwr_GetBushSumOfVolumes(ptr noundef %0, i32 noundef %1) #0 {
  %3 = alloca ptr, align 8
  %4 = alloca i32, align 4
  %5 = alloca ptr, align 8
  %6 = alloca i32, align 4
  %7 = alloca i32, align 4
  store ptr %0, ptr %3, align 8
  store i32 %1, ptr %4, align 4
  store i32 0, ptr %7, align 4
  %8 = load ptr, ptr %3, align 8
  %9 = getelementptr inbounds %struct.Rwr_Man_t_, ptr %8, i32 0, i32 9
  %10 = load ptr, ptr %9, align 8
  %11 = load i32, ptr %4, align 4
  %12 = sext i32 %11 to i64
  %13 = getelementptr inbounds ptr, ptr %10, i64 %12
  %14 = load ptr, ptr %13, align 8
  store ptr %14, ptr %5, align 8
  br label %15

15:                                               ; preds = %43, %2
  %16 = load ptr, ptr %5, align 8
  %17 = icmp ne ptr %16, null
  br i1 %17, label %18, label %47

18:                                               ; preds = %15
  %19 = load ptr, ptr %5, align 8
  %20 = getelementptr inbounds %struct.Rwr_Node_t_, ptr %19, i32 0, i32 5
  %21 = load i32, ptr %20, align 2
  %22 = and i32 %21, 65535
  %23 = load ptr, ptr %3, align 8
  %24 = getelementptr inbounds %struct.Rwr_Man_t_, ptr %23, i32 0, i32 1
  %25 = load ptr, ptr %24, align 8
  %26 = load ptr, ptr %5, align 8
  %27 = getelementptr inbounds %struct.Rwr_Node_t_, ptr %26, i32 0, i32 5
  %28 = load i32, ptr %27, align 2
  %29 = and i32 %28, 65535
  %30 = zext i32 %29 to i64
  %31 = getelementptr inbounds i16, ptr %25, i64 %30
  %32 = load i16, ptr %31, align 2
  %33 = zext i16 %32 to i32
  %34 = icmp ne i32 %22, %33
  br i1 %34, label %35, label %36

35:                                               ; preds = %18
  br label %43

36:                                               ; preds = %18
  store i32 0, ptr %6, align 4
  %37 = load ptr, ptr %3, align 8
  call void @Rwr_ManIncTravId(ptr noundef %37)
  %38 = load ptr, ptr %3, align 8
  %39 = load ptr, ptr %5, align 8
  call void @Rwr_Trav2_rec(ptr noundef %38, ptr noundef %39, ptr noundef %6)
  %40 = load i32, ptr %6, align 4
  %41 = load i32, ptr %7, align 4
  %42 = add nsw i32 %41, %40
  store i32 %42, ptr %7, align 4
  br label %43

43:                                               ; preds = %36, %35
  %44 = load ptr, ptr %5, align 8
  %45 = getelementptr inbounds %struct.Rwr_Node_t_, ptr %44, i32 0, i32 9
  %46 = load ptr, ptr %45, align 8
  store ptr %46, ptr %5, align 8
  br label %15, !llvm.loop !6

47:                                               ; preds = %15
  %48 = load i32, ptr %7, align 4
  ret i32 %48
}

; Function Attrs: nounwind uwtable
define void @Rwr_GetBushVolume(ptr noundef %0, i32 noundef %1, ptr noundef %2, ptr noundef %3) #0 {
  %5 = alloca ptr, align 8
  %6 = alloca i32, align 4
  %7 = alloca ptr, align 8
  %8 = alloca ptr, align 8
  %9 = alloca ptr, align 8
  %10 = alloca i32, align 4
  %11 = alloca i32, align 4
  store ptr %0, ptr %5, align 8
  store i32 %1, ptr %6, align 4
  store ptr %2, ptr %7, align 8
  store ptr %3, ptr %8, align 8
  store i32 0, ptr %10, align 4
  store i32 0, ptr %11, align 4
  %12 = load ptr, ptr %5, align 8
  call void @Rwr_ManIncTravId(ptr noundef %12)
  %13 = load ptr, ptr %5, align 8
  %14 = getelementptr inbounds %struct.Rwr_Man_t_, ptr %13, i32 0, i32 9
  %15 = load ptr, ptr %14, align 8
  %16 = load i32, ptr %6, align 4
  %17 = sext i32 %16 to i64
  %18 = getelementptr inbounds ptr, ptr %15, i64 %17
  %19 = load ptr, ptr %18, align 8
  store ptr %19, ptr %9, align 8
  br label %20

20:                                               ; preds = %46, %4
  %21 = load ptr, ptr %9, align 8
  %22 = icmp ne ptr %21, null
  br i1 %22, label %23, label %50

23:                                               ; preds = %20
  %24 = load ptr, ptr %9, align 8
  %25 = getelementptr inbounds %struct.Rwr_Node_t_, ptr %24, i32 0, i32 5
  %26 = load i32, ptr %25, align 2
  %27 = and i32 %26, 65535
  %28 = load ptr, ptr %5, align 8
  %29 = getelementptr inbounds %struct.Rwr_Man_t_, ptr %28, i32 0, i32 1
  %30 = load ptr, ptr %29, align 8
  %31 = load ptr, ptr %9, align 8
  %32 = getelementptr inbounds %struct.Rwr_Node_t_, ptr %31, i32 0, i32 5
  %33 = load i32, ptr %32, align 2
  %34 = and i32 %33, 65535
  %35 = zext i32 %34 to i64
  %36 = getelementptr inbounds i16, ptr %30, i64 %35
  %37 = load i16, ptr %36, align 2
  %38 = zext i16 %37 to i32
  %39 = icmp ne i32 %27, %38
  br i1 %39, label %40, label %41

40:                                               ; preds = %23
  br label %46

41:                                               ; preds = %23
  %42 = load i32, ptr %11, align 4
  %43 = add nsw i32 %42, 1
  store i32 %43, ptr %11, align 4
  %44 = load ptr, ptr %5, align 8
  %45 = load ptr, ptr %9, align 8
  call void @Rwr_Trav2_rec(ptr noundef %44, ptr noundef %45, ptr noundef %10)
  br label %46

46:                                               ; preds = %41, %40
  %47 = load ptr, ptr %9, align 8
  %48 = getelementptr inbounds %struct.Rwr_Node_t_, ptr %47, i32 0, i32 9
  %49 = load ptr, ptr %48, align 8
  store ptr %49, ptr %9, align 8
  br label %20, !llvm.loop !4

50:                                               ; preds = %20
  %51 = load i32, ptr %10, align 4
  %52 = load ptr, ptr %7, align 8
  store i32 %51, ptr %52, align 4
  %53 = load i32, ptr %11, align 4
  %54 = load ptr, ptr %8, align 8
  store i32 %53, ptr %54, align 4
  ret void
}

; Function Attrs: nounwind uwtable
define void @Rwr_ManPrint(ptr noundef %0) #0 {
  %2 = alloca ptr, align 8
  %3 = alloca ptr, align 8
  %4 = alloca ptr, align 8
  %5 = alloca i32, align 4
  %6 = alloca i32, align 4
  %7 = alloca i32, align 4
  %8 = alloca i32, align 4
  %9 = alloca i32, align 4
  %10 = alloca i32, align 4
  store ptr %0, ptr %2, align 8
  %11 = call noalias ptr @fopen(ptr noundef @.str.13, ptr noundef @.str.14)
  store ptr %11, ptr %3, align 8
  store i32 0, ptr %7, align 4
  store i32 65536, ptr %6, align 4
  store i32 0, ptr %10, align 4
  br label %12

12:                                               ; preds = %101, %1
  %13 = load i32, ptr %10, align 4
  %14 = load i32, ptr %6, align 4
  %15 = icmp slt i32 %13, %14
  br i1 %15, label %16, label %104

16:                                               ; preds = %12
  %17 = load ptr, ptr %2, align 8
  %18 = getelementptr inbounds %struct.Rwr_Man_t_, ptr %17, i32 0, i32 9
  %19 = load ptr, ptr %18, align 8
  %20 = load i32, ptr %10, align 4
  %21 = sext i32 %20 to i64
  %22 = getelementptr inbounds ptr, ptr %19, i64 %21
  %23 = load ptr, ptr %22, align 8
  %24 = icmp eq ptr %23, null
  br i1 %24, label %25, label %26

25:                                               ; preds = %16
  br label %101

26:                                               ; preds = %16
  %27 = load i32, ptr %10, align 4
  %28 = load ptr, ptr %2, align 8
  %29 = getelementptr inbounds %struct.Rwr_Man_t_, ptr %28, i32 0, i32 1
  %30 = load ptr, ptr %29, align 8
  %31 = load i32, ptr %10, align 4
  %32 = sext i32 %31 to i64
  %33 = getelementptr inbounds i16, ptr %30, i64 %32
  %34 = load i16, ptr %33, align 2
  %35 = zext i16 %34 to i32
  %36 = icmp ne i32 %27, %35
  br i1 %36, label %37, label %38

37:                                               ; preds = %26
  br label %101

38:                                               ; preds = %26
  %39 = load ptr, ptr %3, align 8
  %40 = load ptr, ptr %2, align 8
  %41 = getelementptr inbounds %struct.Rwr_Man_t_, ptr %40, i32 0, i32 4
  %42 = load ptr, ptr %41, align 8
  %43 = load i32, ptr %10, align 4
  %44 = sext i32 %43 to i64
  %45 = getelementptr inbounds i8, ptr %42, i64 %44
  %46 = load i8, ptr %45, align 1
  %47 = zext i8 %46 to i32
  %48 = load i32, ptr %7, align 4
  %49 = add nsw i32 %48, 1
  store i32 %49, ptr %7, align 4
  %50 = call i32 (ptr, ptr, ...) @fprintf(ptr noundef %39, ptr noundef @.str.15, i32 noundef %47, i32 noundef %48) #3
  %51 = load ptr, ptr %2, align 8
  %52 = load i32, ptr %10, align 4
  call void @Rwr_GetBushVolume(ptr noundef %51, i32 noundef %52, ptr noundef %8, ptr noundef %9)
  %53 = load ptr, ptr %3, align 8
  %54 = load i32, ptr %9, align 4
  %55 = load i32, ptr %8, align 4
  %56 = load ptr, ptr %2, align 8
  %57 = load i32, ptr %10, align 4
  %58 = call i32 @Rwr_GetBushSumOfVolumes(ptr noundef %56, i32 noundef %57)
  %59 = call i32 (ptr, ptr, ...) @fprintf(ptr noundef %53, ptr noundef @.str.16, i32 noundef %54, i32 noundef %55, i32 noundef %58) #3
  %60 = load i32, ptr %10, align 4
  store i32 %60, ptr %5, align 4
  %61 = load ptr, ptr %3, align 8
  call void @Extra_PrintBinary(ptr noundef %61, ptr noundef %5, i32 noundef 16)
  %62 = load ptr, ptr %3, align 8
  %63 = call i32 (ptr, ptr, ...) @fprintf(ptr noundef %62, ptr noundef @.str.12) #3
  %64 = load ptr, ptr %2, align 8
  %65 = getelementptr inbounds %struct.Rwr_Man_t_, ptr %64, i32 0, i32 9
  %66 = load ptr, ptr %65, align 8
  %67 = load i32, ptr %10, align 4
  %68 = sext i32 %67 to i64
  %69 = getelementptr inbounds ptr, ptr %66, i64 %68
  %70 = load ptr, ptr %69, align 8
  store ptr %70, ptr %4, align 8
  br label %71

71:                                               ; preds = %96, %38
  %72 = load ptr, ptr %4, align 8
  %73 = icmp ne ptr %72, null
  br i1 %73, label %74, label %100

74:                                               ; preds = %71
  %75 = load ptr, ptr %4, align 8
  %76 = getelementptr inbounds %struct.Rwr_Node_t_, ptr %75, i32 0, i32 5
  %77 = load i32, ptr %76, align 2
  %78 = and i32 %77, 65535
  %79 = load ptr, ptr %2, align 8
  %80 = getelementptr inbounds %struct.Rwr_Man_t_, ptr %79, i32 0, i32 1
  %81 = load ptr, ptr %80, align 8
  %82 = load ptr, ptr %4, align 8
  %83 = getelementptr inbounds %struct.Rwr_Node_t_, ptr %82, i32 0, i32 5
  %84 = load i32, ptr %83, align 2
  %85 = and i32 %84, 65535
  %86 = zext i32 %85 to i64
  %87 = getelementptr inbounds i16, ptr %81, i64 %86
  %88 = load i16, ptr %87, align 2
  %89 = zext i16 %88 to i32
  %90 = icmp eq i32 %78, %89
  br i1 %90, label %91, label %95

91:                                               ; preds = %74
  %92 = load ptr, ptr %3, align 8
  %93 = load ptr, ptr %2, align 8
  %94 = load ptr, ptr %4, align 8
  call void @Rwr_NodePrint(ptr noundef %92, ptr noundef %93, ptr noundef %94)
  br label %95

95:                                               ; preds = %91, %74
  br label %96

96:                                               ; preds = %95
  %97 = load ptr, ptr %4, align 8
  %98 = getelementptr inbounds %struct.Rwr_Node_t_, ptr %97, i32 0, i32 9
  %99 = load ptr, ptr %98, align 8
  store ptr %99, ptr %4, align 8
  br label %71, !llvm.loop !7

100:                                              ; preds = %71
  br label %101

101:                                              ; preds = %100, %37, %25
  %102 = load i32, ptr %10, align 4
  %103 = add nsw i32 %102, 1
  store i32 %103, ptr %10, align 4
  br label %12, !llvm.loop !8

104:                                              ; preds = %12
  %105 = load ptr, ptr %3, align 8
  %106 = call i32 @fclose(ptr noundef %105)
  ret void
}