; Function Attrs: nounwind uwtable
define void @Rwr_ManPrint(ptr noundef %0) local_unnamed_addr #1 {
  %2 = alloca i32, align 4
  %3 = alloca i32, align 4
  %4 = alloca i32, align 4
  %5 = alloca i32, align 4
  %6 = tail call noalias ptr @fopen(ptr noundef nonnull @.str.13, ptr noundef nonnull @.str.14)
  %7 = getelementptr inbounds nuw i8, ptr %0, i64 72
  %8 = getelementptr inbounds nuw i8, ptr %0, i64 8
  %9 = getelementptr inbounds nuw i8, ptr %0, i64 32
  br label %10

10:                                               ; preds = %1, %.loopexit
  %indvars.iv = phi i64 [ 0, %1 ], [ %indvars.iv.next, %.loopexit ]
  %.03042 = phi i32 [ 0, %1 ], [ %.1, %.loopexit ]
  %11 = load ptr, ptr %7, align 8
  %12 = getelementptr inbounds nuw ptr, ptr %11, i64 %indvars.iv
  %13 = load ptr, ptr %12, align 8
  %14 = icmp eq ptr %13, null
  br i1 %14, label %.loopexit, label %15

15:                                               ; preds = %10
  %16 = load ptr, ptr %8, align 8
  %17 = getelementptr inbounds nuw i16, ptr %16, i64 %indvars.iv
  %18 = load i16, ptr %17, align 2
  %19 = zext i16 %18 to i64
  %.not = icmp eq i64 %indvars.iv, %19
  br i1 %.not, label %20, label %.loopexit

20:                                               ; preds = %15
  %21 = load ptr, ptr %9, align 8
  %22 = getelementptr inbounds nuw i8, ptr %21, i64 %indvars.iv
  %23 = load i8, ptr %22, align 1
  %24 = zext i8 %23 to i32
  %25 = add nsw i32 %.03042, 1
  %26 = call i32 (ptr, ptr, ...) @fprintf(ptr noundef %6, ptr noundef nonnull @.str.15, i32 noundef %24, i32 noundef %.03042) #7
  call void @llvm.lifetime.start.p0(i64 4, ptr nonnull %4)
  store i32 0, ptr %4, align 4
  call void @Rwr_ManIncTravId(ptr noundef nonnull %0) #7
  %27 = load ptr, ptr %7, align 8
  %28 = getelementptr inbounds nuw ptr, ptr %27, i64 %indvars.iv
  %.01315.i = load ptr, ptr %28, align 8
  %.not16.i = icmp eq ptr %.01315.i, null
  br i1 %.not16.i, label %Rwr_GetBushVolume.exit.thread, label %.lr.ph.i

Rwr_GetBushVolume.exit.thread:                    ; preds = %20
  call void @llvm.lifetime.end.p0(i64 4, ptr nonnull %4)
  call void @llvm.lifetime.start.p0(i64 4, ptr nonnull %3)
  br label %Rwr_GetBushSumOfVolumes.exit

.lr.ph.i:                                         ; preds = %20, %39
  %.01318.i = phi ptr [ %.013.i, %39 ], [ %.01315.i, %20 ]
  %.017.i = phi i32 [ %.1.i, %39 ], [ 0, %20 ]
  %29 = getelementptr inbounds nuw i8, ptr %.01318.i, i64 14
  %30 = load i32, ptr %29, align 2
  %31 = and i32 %30, 65535
  %32 = load ptr, ptr %8, align 8
  %33 = zext nneg i32 %31 to i64
  %34 = getelementptr inbounds nuw i16, ptr %32, i64 %33
  %35 = load i16, ptr %34, align 2
  %36 = trunc i32 %30 to i16
  %.not14.i = icmp eq i16 %35, %36
  br i1 %.not14.i, label %37, label %39

37:                                               ; preds = %.lr.ph.i
  %38 = add nsw i32 %.017.i, 1
  call void @Rwr_Trav2_rec(ptr noundef nonnull %0, ptr noundef nonnull %.01318.i, ptr noundef nonnull %4)
  br label %39

39:                                               ; preds = %37, %.lr.ph.i
  %.1.i = phi i32 [ %.017.i, %.lr.ph.i ], [ %38, %37 ]
  %40 = getelementptr inbounds nuw i8, ptr %.01318.i, i64 40
  %.013.i = load ptr, ptr %40, align 8
  %.not.i = icmp eq ptr %.013.i, null
  br i1 %.not.i, label %Rwr_GetBushVolume.exit, label %.lr.ph.i, !llvm.loop !4

Rwr_GetBushVolume.exit:                           ; preds = %39
  %.pre.i = load i32, ptr %4, align 4
  %.pre = load ptr, ptr %7, align 8
  %.phi.trans.insert = getelementptr inbounds nuw ptr, ptr %.pre, i64 %indvars.iv
  %.01113.i.pre = load ptr, ptr %.phi.trans.insert, align 8
  call void @llvm.lifetime.end.p0(i64 4, ptr nonnull %4)
  call void @llvm.lifetime.start.p0(i64 4, ptr nonnull %3)
  %.not14.i33 = icmp eq ptr %.01113.i.pre, null
  br i1 %.not14.i33, label %Rwr_GetBushSumOfVolumes.exit, label %.lr.ph.i34

.lr.ph.i34:                                       ; preds = %Rwr_GetBushVolume.exit, %52
  %.01116.i = phi ptr [ %.011.i, %52 ], [ %.01113.i.pre, %Rwr_GetBushVolume.exit ]
  %.015.i = phi i32 [ %.1.i35, %52 ], [ 0, %Rwr_GetBushVolume.exit ]
  %41 = getelementptr inbounds nuw i8, ptr %.01116.i, i64 14
  %42 = load i32, ptr %41, align 2
  %43 = and i32 %42, 65535
  %44 = load ptr, ptr %8, align 8
  %45 = zext nneg i32 %43 to i64
  %46 = getelementptr inbounds nuw i16, ptr %44, i64 %45
  %47 = load i16, ptr %46, align 2
  %48 = trunc i32 %42 to i16
  %.not12.i = icmp eq i16 %47, %48
  br i1 %.not12.i, label %49, label %52

49:                                               ; preds = %.lr.ph.i34
  store i32 0, ptr %3, align 4
  call void @Rwr_ManIncTravId(ptr noundef nonnull %0) #7
  call void @Rwr_Trav2_rec(ptr noundef nonnull %0, ptr noundef nonnull %.01116.i, ptr noundef nonnull %3)
  %50 = load i32, ptr %3, align 4
  %51 = add nsw i32 %50, %.015.i
  br label %52

52:                                               ; preds = %49, %.lr.ph.i34
  %.1.i35 = phi i32 [ %.015.i, %.lr.ph.i34 ], [ %51, %49 ]
  %53 = getelementptr inbounds nuw i8, ptr %.01116.i, i64 40
  %.011.i = load ptr, ptr %53, align 8
  %.not.i36 = icmp eq ptr %.011.i, null
  br i1 %.not.i36, label %Rwr_GetBushSumOfVolumes.exit, label %.lr.ph.i34, !llvm.loop !6

Rwr_GetBushSumOfVolumes.exit:                     ; preds = %52, %Rwr_GetBushVolume.exit.thread, %Rwr_GetBushVolume.exit
  %.0.lcssa.i49 = phi i32 [ %.1.i, %Rwr_GetBushVolume.exit ], [ 0, %Rwr_GetBushVolume.exit.thread ], [ %.1.i, %52 ]
  %54 = phi i32 [ %.pre.i, %Rwr_GetBushVolume.exit ], [ 0, %Rwr_GetBushVolume.exit.thread ], [ %.pre.i, %52 ]
  %.0.lcssa.i37 = phi i32 [ 0, %Rwr_GetBushVolume.exit ], [ 0, %Rwr_GetBushVolume.exit.thread ], [ %.1.i35, %52 ]
  call void @llvm.lifetime.end.p0(i64 4, ptr nonnull %3)
  %55 = call i32 (ptr, ptr, ...) @fprintf(ptr noundef %6, ptr noundef nonnull @.str.16, i32 noundef %.0.lcssa.i49, i32 noundef %54, i32 noundef %.0.lcssa.i37) #7
  %56 = trunc nuw nsw i64 %indvars.iv to i32
  store i32 %56, ptr %5, align 4
  call void @Extra_PrintBinary(ptr noundef %6, ptr noundef nonnull %5, i32 noundef 16) #7
  %fputc = call i32 @fputc(i32 10, ptr %6)
  %57 = load ptr, ptr %7, align 8
  %58 = getelementptr inbounds nuw ptr, ptr %57, i64 %indvars.iv
  %.03139 = load ptr, ptr %58, align 8
  %.not3240 = icmp eq ptr %.03139, null
  br i1 %.not3240, label %.loopexit, label %.lr.ph

.lr.ph:                                           ; preds = %Rwr_GetBushSumOfVolumes.exit, %83
  %.03141 = phi ptr [ %.031, %83 ], [ %.03139, %Rwr_GetBushSumOfVolumes.exit ]
  %59 = getelementptr inbounds nuw i8, ptr %.03141, i64 14
  %60 = load i32, ptr %59, align 2
  %61 = and i32 %60, 65535
  %62 = load ptr, ptr %8, align 8
  %63 = zext nneg i32 %61 to i64
  %64 = getelementptr inbounds nuw i16, ptr %62, i64 %63
  %65 = load i16, ptr %64, align 2
  %66 = trunc i32 %60 to i16
  %67 = icmp eq i16 %65, %66
  br i1 %67, label %68, label %83

68:                                               ; preds = %.lr.ph
  call void @llvm.lifetime.start.p0(i64 4, ptr nonnull %2)
  %69 = load i32, ptr %.03141, align 8
  %70 = call i32 (ptr, ptr, ...) @fprintf(ptr noundef %6, ptr noundef nonnull @.str.7, i32 noundef %69) #7
  %71 = load i32, ptr %59, align 2
  %72 = and i32 %71, 65535
  store i32 %72, ptr %2, align 4
  call void @Extra_PrintHex(ptr noundef %6, ptr noundef nonnull %2, i32 noundef 4) #7
  %73 = call i64 @fwrite(ptr nonnull @.str.8, i64 4, i64 1, ptr %6)
  call void @Extra_PrintBinary(ptr noundef %6, ptr noundef nonnull %2, i32 noundef 16) #7
  %74 = load i32, ptr %59, align 2
  %75 = lshr i32 %74, 24
  %76 = and i32 %75, 63
  %77 = call i32 (ptr, ptr, ...) @fprintf(ptr noundef %6, ptr noundef nonnull @.str.9, i32 noundef %76) #7
  %78 = load i32, ptr %59, align 2
  %79 = lshr i32 %78, 16
  %80 = and i32 %79, 255
  %81 = call i32 (ptr, ptr, ...) @fprintf(ptr noundef %6, ptr noundef nonnull @.str.10, i32 noundef %80) #7
  %82 = call i64 @fwrite(ptr nonnull @.str.11, i64 2, i64 1, ptr %6)
  call void @Rwr_NodePrint_rec(ptr noundef %6, ptr noundef nonnull readonly %.03141)
  %fputc.i = call i32 @fputc(i32 10, ptr %6)
  call void @llvm.lifetime.end.p0(i64 4, ptr nonnull %2)
  br label %83

83:                                               ; preds = %.lr.ph, %68
  %84 = getelementptr inbounds nuw i8, ptr %.03141, i64 40
  %.031 = load ptr, ptr %84, align 8
  %.not32 = icmp eq ptr %.031, null
  br i1 %.not32, label %.loopexit, label %.lr.ph, !llvm.loop !7

.loopexit:                                        ; preds = %83, %Rwr_GetBushSumOfVolumes.exit, %15, %10
  %.1 = phi i32 [ %.03042, %10 ], [ %.03042, %15 ], [ %25, %Rwr_GetBushSumOfVolumes.exit ], [ %25, %83 ]
  %indvars.iv.next = add nuw nsw i64 %indvars.iv, 1
  %exitcond.not = icmp eq i64 %indvars.iv.next, 65536
  br i1 %exitcond.not, label %85, label %10, !llvm.loop !8

85:                                               ; preds = %.loopexit
  %86 = call i32 @fclose(ptr noundef %6)
  ret void
}